; Function Attrs: mustprogress uwtable
define dso_local void @_ZN4Luau7CodeGen3A6418AssemblyBuilderA643negENS1_11RegisterA64ES3_(ptr noundef nonnull align 8 dereferenceable(176) %0, i8 %1, i8 %2) local_unnamed_addr #0 align 2 {
  %4 = getelementptr inbounds nuw i8, ptr %0, i64 80
  %5 = load i8, ptr %4, align 8, !tbaa !14, !range !46, !noundef !47
  %6 = trunc nuw i8 %5 to i1
  br i1 %6, label %7, label %8

7:                                                ; preds = %3
  tail call void @_ZN4Luau7CodeGen3A6418AssemblyBuilderA643logEPKcNS1_11RegisterA64ES5_(ptr noundef nonnull align 8 dereferenceable(176) %0, ptr noundef nonnull @.str.6, i8 %1, i8 %2)
  br label %8

8:                                                ; preds = %7, %3
  %9 = and i8 %1, 7
  %10 = icmp eq i8 %9, 2
  %11 = lshr i8 %1, 3
  %12 = zext nneg i8 %11 to i32
  %13 = lshr i8 %2, 3
  %14 = zext nneg i8 %13 to i32
  %15 = shl nuw nsw i32 %14, 16
  %16 = or disjoint i32 %15, %12
  %17 = select i1 %10, i32 -889191456, i32 1258292192
  %18 = or disjoint i32 %16, %17
  %19 = getelementptr inbounds nuw i8, ptr %0, i64 160
  %20 = load ptr, ptr %19, align 8, !tbaa !39
  %21 = getelementptr inbounds nuw i8, ptr %20, i64 4
  store ptr %21, ptr %19, align 8, !tbaa !39
  store i32 %18, ptr %20, align 4, !tbaa !48
  %22 = getelementptr inbounds nuw i8, ptr %0, i64 168
  %23 = load ptr, ptr %22, align 8, !tbaa !40
  %24 = icmp eq ptr %23, %21
  br i1 %24, label %25, label %_ZN4Luau7CodeGen3A6418AssemblyBuilderA648placeSR2EPKcNS1_11RegisterA64ES5_hh.exit

25:                                               ; preds = %8
  tail call void @_ZN4Luau7CodeGen3A6418AssemblyBuilderA646extendEv(ptr noundef nonnull align 8 dereferenceable(176) %0)
  br label %_ZN4Luau7CodeGen3A6418AssemblyBuilderA648placeSR2EPKcNS1_11RegisterA64ES5_hh.exit

_ZN4Luau7CodeGen3A6418AssemblyBuilderA648placeSR2EPKcNS1_11RegisterA64ES5_hh.exit: ; preds = %8, %25
  ret void
}